; Function Attrs: mustprogress uwtable
define hidden void @_ZN4cvc58internal6theory2bv8TheoryBV15preRegisterTermENS0_12NodeTemplateILb0EEE(ptr noundef nonnull align 8 dereferenceable(3808) %this, ptr nocapture noundef readonly %node) unnamed_addr #3 align 2 personality ptr @__gxx_personality_v0 {
entry:
  %agg.tmp.i = alloca %"class.cvc5::internal::NodeTemplate.561", align 8
  %agg.tmp = alloca %"class.cvc5::internal::NodeTemplate.561", align 8
  %agg.tmp5 = alloca %"class.cvc5::internal::NodeTemplate.561", align 8
  %d_internal = getelementptr inbounds i8, ptr %this, i64 408
  %0 = load ptr, ptr %d_internal, align 8
  %1 = load ptr, ptr %node, align 8
  store ptr %1, ptr %agg.tmp, align 8
  %vtable = load ptr, ptr %0, align 8
  %vfn = getelementptr inbounds i8, ptr %vtable, i64 32
  %2 = load ptr, ptr %vfn, align 8
  call void %2(ptr noundef nonnull align 8 dereferenceable(32) %0, ptr noundef nonnull %agg.tmp)
  %call2 = call noundef ptr @_ZN4cvc58internal6theory6Theory17getEqualityEngineEv(ptr noundef nonnull align 8 dereferenceable(408) %this)
  %tobool.not = icmp eq ptr %call2, null
  br i1 %tobool.not, label %if.end11, label %if.then

if.then:                                          ; preds = %entry
  %3 = load ptr, ptr %node, align 8
  %d_kind.i = getelementptr inbounds i8, ptr %3, i64 8
  %bf.load.i = load i16, ptr %d_kind.i, align 8
  %bf.clear.i = and i16 %bf.load.i, 1023
  %cmp = icmp eq i16 %bf.clear.i, 5
  br i1 %cmp, label %if.then4, label %if.else

if.then4:                                         ; preds = %if.then
  %d_state = getelementptr inbounds i8, ptr %this, i64 3344
  store ptr %3, ptr %agg.tmp5, align 8
  call void @_ZN4cvc58internal6theory11TheoryState33addEqualityEngineTriggerPredicateENS0_12NodeTemplateILb0EEE(ptr noundef nonnull align 8 dereferenceable(80) %d_state, ptr noundef nonnull %agg.tmp5)
  br label %if.end11

if.else:                                          ; preds = %if.then
  call void @llvm.lifetime.start.p0(i64 8, ptr nonnull %agg.tmp.i)
  store ptr %3, ptr %agg.tmp.i, align 8
  call void @_ZN4cvc58internal6theory2eq14EqualityEngine15addTermInternalENS0_12NodeTemplateILb0EEEb(ptr noundef nonnull align 8 dereferenceable(1784) %call2, ptr noundef nonnull %agg.tmp.i, i1 noundef zeroext false)
  call void @llvm.lifetime.end.p0(i64 8, ptr nonnull %agg.tmp.i)
  br label %if.end11

if.end11:                                         ; preds = %if.then4, %if.else, %entry
  ret void
}